; Function Attrs: mustprogress nofree norecurse nosync nounwind willreturn memory(read, inaccessiblemem: none) uwtable
define hidden noundef zeroext i1 @_ZN7JVMFlag10is_defaultE12JVMFlagsEnum(i32 noundef %0) local_unnamed_addr #4 align 2 {
  %2 = load ptr, ptr @_ZN7JVMFlag5flagsE, align 8
  %3 = sext i32 %0 to i64
  %4 = getelementptr inbounds %class.JVMFlag, ptr %2, i64 %3, i32 2
  %5 = load i32, ptr %4, align 8
  %6 = and i32 %5, 15
  %7 = icmp eq i32 %6, 0
  ret i1 %7
}